target datalayout = "e-m:e-p270:32:32-p271:32:32-p272:64:64-i64:64-i128:128-f80:128-n8:16:32:64-S128"
target triple = "x86_64-pc-linux-gnu"

%struct.Vec_Int_t_ = type { i32, i32, ptr }
%struct.Gia_Man_t_ = type { ptr, ptr, i32, i32, i32, i32, ptr, ptr, i32, i32, i32, ptr, ptr, %struct.Vec_Int_t_, %struct.Vec_Int_t_, i32, i32, i32, %struct.Vec_Int_t_, ptr, ptr, ptr, i32, i32, i32, i32, ptr, ptr, ptr, ptr, ptr, i32, i32, ptr, i32, ptr, ptr, ptr, ptr, ptr, ptr, ptr, ptr, ptr, ptr, ptr, ptr, ptr, ptr, ptr, ptr, ptr, ptr, %struct.Vec_Int_t_, %struct.Vec_Int_t_, ptr, ptr, ptr, ptr, ptr, ptr, ptr, ptr, ptr, ptr, ptr, ptr, ptr, ptr, ptr, ptr, ptr, ptr, ptr, ptr, ptr, i32, float, float, ptr, ptr, i32, ptr, ptr, ptr, ptr, ptr, ptr, ptr, ptr, ptr, ptr, ptr, ptr, ptr, ptr, ptr, i64, i64, ptr, ptr, i32, i32, i32, i32, i32, i32, i32, i32, i32, i32, i32, i32, ptr, ptr, ptr, ptr, ptr, ptr, ptr, ptr, i32, i32, i32, ptr, i32, i32, ptr, ptr, ptr, ptr, ptr, ptr, i32, i32, ptr, %struct.Vec_Int_t_, %struct.Vec_Int_t_, %struct.Vec_Int_t_, ptr, ptr, ptr, i32, i32, i32, i32, ptr, ptr, ptr, ptr, ptr }

@.str.11 = private unnamed_addr constant [3 x i8] c"wb\00", align 1
@.str.12 = private unnamed_addr constant [26 x i8] c"Cannot open output file.\0A\00", align 1
@.str.13 = private unnamed_addr constant [109 x i8] c"The number of 0s and 1s in the input file (%d) does not evenly divide by the number of primary inputs (%d).\0A\00", align 1
@.str.14 = private unnamed_addr constant [45 x i8] c"Output patterns are written into file \22%s\22.\0A\00", align 1

; Function Attrs: inlinehint nounwind uwtable
define internal i32 @Vec_IntEntry(ptr noundef %0, i32 noundef %1) #1 {
  %3 = alloca ptr, align 8
  %4 = alloca i32, align 4
  store ptr %0, ptr %3, align 8, !tbaa !22
  store i32 %1, ptr %4, align 4, !tbaa !8
  %5 = load ptr, ptr %3, align 8, !tbaa !22
  %6 = getelementptr inbounds nuw %struct.Vec_Int_t_, ptr %5, i32 0, i32 2
  %7 = load ptr, ptr %6, align 8, !tbaa !26
  %8 = load i32, ptr %4, align 4, !tbaa !8
  %9 = sext i32 %8 to i64
  %10 = getelementptr inbounds i32, ptr %7, i64 %9
  %11 = load i32, ptr %10, align 4, !tbaa !8
  ret i32 %11
}

; Function Attrs: nounwind uwtable
define i32 @Gia_ManSimWriteFile(ptr noundef %0, ptr noundef %1, i32 noundef %2) #0 {
  %4 = alloca i32, align 4
  %5 = alloca ptr, align 8
  %6 = alloca ptr, align 8
  %7 = alloca i32, align 4
  %8 = alloca i32, align 4
  %9 = alloca i32, align 4
  %10 = alloca ptr, align 8
  %11 = alloca i32, align 4
  store ptr %0, ptr %5, align 8, !tbaa !52
  store ptr %1, ptr %6, align 8, !tbaa !22
  store i32 %2, ptr %7, align 4, !tbaa !8
  call void @llvm.lifetime.start.p0(i64 4, ptr %8) #11
  call void @llvm.lifetime.start.p0(i64 4, ptr %9) #11
  call void @llvm.lifetime.start.p0(i64 8, ptr %10) #11
  %12 = load ptr, ptr %5, align 8, !tbaa !52
  %13 = call noalias ptr @fopen(ptr noundef %12, ptr noundef @.str.11)
  store ptr %13, ptr %10, align 8, !tbaa !71
  %14 = load ptr, ptr %10, align 8, !tbaa !71
  %15 = icmp eq ptr %14, null
  br i1 %15, label %16, label %18

16:                                               ; preds = %3
  %17 = call i32 (ptr, ...) @printf(ptr noundef @.str.12)
  store i32 0, ptr %4, align 4
  store i32 1, ptr %11, align 4
  br label %51

18:                                               ; preds = %3
  store i32 0, ptr %9, align 4, !tbaa !8
  br label %19

19:                                               ; preds = %45, %18
  %20 = load i32, ptr %9, align 4, !tbaa !8
  %21 = load ptr, ptr %6, align 8, !tbaa !22
  %22 = call i32 @Vec_IntSize(ptr noundef %21)
  %23 = icmp slt i32 %20, %22
  br i1 %23, label %24, label %28

24:                                               ; preds = %19
  %25 = load ptr, ptr %6, align 8, !tbaa !22
  %26 = load i32, ptr %9, align 4, !tbaa !8
  %27 = call i32 @Vec_IntEntry(ptr noundef %25, i32 noundef %26)
  store i32 %27, ptr %8, align 4, !tbaa !8
  br label %28

28:                                               ; preds = %24, %19
  %29 = phi i1 [ false, %19 ], [ true, %24 ]
  br i1 %29, label %30, label %48

30:                                               ; preds = %28
  %31 = load i32, ptr %8, align 4, !tbaa !8
  %32 = add nsw i32 48, %31
  %33 = load ptr, ptr %10, align 8, !tbaa !71
  %34 = call i32 @fputc(i32 noundef %32, ptr noundef %33)
  %35 = load i32, ptr %9, align 4, !tbaa !8
  %36 = load i32, ptr %7, align 4, !tbaa !8
  %37 = srem i32 %35, %36
  %38 = load i32, ptr %7, align 4, !tbaa !8
  %39 = sub nsw i32 %38, 1
  %40 = icmp eq i32 %37, %39
  br i1 %40, label %41, label %44

41:                                               ; preds = %30
  %42 = load ptr, ptr %10, align 8, !tbaa !71
  %43 = call i32 @fputc(i32 noundef 10, ptr noundef %42)
  br label %44

44:                                               ; preds = %41, %30
  br label %45

45:                                               ; preds = %44
  %46 = load i32, ptr %9, align 4, !tbaa !8
  %47 = add nsw i32 %46, 1
  store i32 %47, ptr %9, align 4, !tbaa !8
  br label %19, !llvm.loop !104

48:                                               ; preds = %28
  %49 = load ptr, ptr %10, align 8, !tbaa !71
  %50 = call i32 @fclose(ptr noundef %49)
  store i32 1, ptr %4, align 4
  store i32 1, ptr %11, align 4
  br label %51

51:                                               ; preds = %48, %16
  call void @llvm.lifetime.end.p0(i64 8, ptr %10) #11
  call void @llvm.lifetime.end.p0(i64 4, ptr %9) #11
  call void @llvm.lifetime.end.p0(i64 4, ptr %8) #11
  %52 = load i32, ptr %4, align 4
  ret i32 %52
}

; Function Attrs: inlinehint nounwind uwtable
define internal i32 @Gia_ManPoNum(ptr noundef %0) #1 {
  %2 = alloca ptr, align 8
  store ptr %0, ptr %2, align 8, !tbaa !19
  %3 = load ptr, ptr %2, align 8, !tbaa !19
  %4 = getelementptr inbounds nuw %struct.Gia_Man_t_, ptr %3, i32 0, i32 12
  %5 = load ptr, ptr %4, align 8, !tbaa !50
  %6 = call i32 @Vec_IntSize(ptr noundef %5)
  %7 = load ptr, ptr %2, align 8, !tbaa !19
  %8 = getelementptr inbounds nuw %struct.Gia_Man_t_, ptr %7, i32 0, i32 2
  %9 = load i32, ptr %8, align 8, !tbaa !49
  %10 = sub nsw i32 %6, %9
  ret i32 %10
}

; Function Attrs: inlinehint nounwind uwtable
define internal void @Vec_IntFree(ptr noundef %0) #1 {
  %2 = alloca ptr, align 8
  store ptr %0, ptr %2, align 8, !tbaa !22
  %3 = load ptr, ptr %2, align 8, !tbaa !22
  %4 = getelementptr inbounds nuw %struct.Vec_Int_t_, ptr %3, i32 0, i32 2
  %5 = load ptr, ptr %4, align 8, !tbaa !26
  %6 = icmp ne ptr %5, null
  br i1 %6, label %7, label %13

7:                                                ; preds = %1
  %8 = load ptr, ptr %2, align 8, !tbaa !22
  %9 = getelementptr inbounds nuw %struct.Vec_Int_t_, ptr %8, i32 0, i32 2
  %10 = load ptr, ptr %9, align 8, !tbaa !26
  call void @free(ptr noundef %10) #11
  %11 = load ptr, ptr %2, align 8, !tbaa !22
  %12 = getelementptr inbounds nuw %struct.Vec_Int_t_, ptr %11, i32 0, i32 2
  store ptr null, ptr %12, align 8, !tbaa !26
  br label %14

13:                                               ; preds = %1
  br label %14

14:                                               ; preds = %13, %7
  %15 = load ptr, ptr %2, align 8, !tbaa !22
  %16 = icmp ne ptr %15, null
  br i1 %16, label %17, label %19

17:                                               ; preds = %14
  %18 = load ptr, ptr %2, align 8, !tbaa !22
  call void @free(ptr noundef %18) #11
  store ptr null, ptr %2, align 8, !tbaa !22
  br label %20

19:                                               ; preds = %14
  br label %20

20:                                               ; preds = %19, %17
  ret void
}

; Function Attrs: inlinehint nounwind uwtable
define internal i32 @Gia_ManPiNum(ptr noundef %0) #1 {
  %2 = alloca ptr, align 8
  store ptr %0, ptr %2, align 8, !tbaa !19
  %3 = load ptr, ptr %2, align 8, !tbaa !19
  %4 = getelementptr inbounds nuw %struct.Gia_Man_t_, ptr %3, i32 0, i32 11
  %5 = load ptr, ptr %4, align 8, !tbaa !69
  %6 = call i32 @Vec_IntSize(ptr noundef %5)
  %7 = load ptr, ptr %2, align 8, !tbaa !19
  %8 = getelementptr inbounds nuw %struct.Gia_Man_t_, ptr %7, i32 0, i32 2
  %9 = load i32, ptr %8, align 8, !tbaa !49
  %10 = sub nsw i32 %6, %9
  ret i32 %10
}

; Function Attrs: inlinehint nounwind uwtable
define internal i32 @Vec_IntSize(ptr noundef %0) #1 {
  %2 = alloca ptr, align 8
  store ptr %0, ptr %2, align 8, !tbaa !22
  %3 = load ptr, ptr %2, align 8, !tbaa !22
  %4 = getelementptr inbounds nuw %struct.Vec_Int_t_, ptr %3, i32 0, i32 1
  %5 = load i32, ptr %4, align 4, !tbaa !23
  ret i32 %5
}

; Function Attrs: nounwind uwtable
define void @Gia_ManSimSimulatePattern(ptr noundef %0, ptr noundef %1, ptr noundef %2) #0 {
  %4 = alloca ptr, align 8
  %5 = alloca ptr, align 8
  %6 = alloca ptr, align 8
  %7 = alloca ptr, align 8
  %8 = alloca ptr, align 8
  %9 = alloca i32, align 4
  store ptr %0, ptr %4, align 8, !tbaa !19
  store ptr %1, ptr %5, align 8, !tbaa !52
  store ptr %2, ptr %6, align 8, !tbaa !52
  call void @llvm.lifetime.start.p0(i64 8, ptr %7) #11
  call void @llvm.lifetime.start.p0(i64 8, ptr %8) #11
  %10 = load ptr, ptr %5, align 8, !tbaa !52
  %11 = call ptr @Gia_ManSimReadFile(ptr noundef %10)
  store ptr %11, ptr %7, align 8, !tbaa !22
  %12 = load ptr, ptr %7, align 8, !tbaa !22
  %13 = icmp eq ptr %12, null
  br i1 %13, label %14, label %15

14:                                               ; preds = %3
  store i32 1, ptr %9, align 4
  br label %45

15:                                               ; preds = %3
  %16 = load ptr, ptr %7, align 8, !tbaa !22
  %17 = call i32 @Vec_IntSize(ptr noundef %16)
  %18 = load ptr, ptr %4, align 8, !tbaa !19
  %19 = call i32 @Gia_ManPiNum(ptr noundef %18)
  %20 = srem i32 %17, %19
  %21 = icmp ne i32 %20, 0
  br i1 %21, label %22, label %29

22:                                               ; preds = %15
  %23 = load ptr, ptr %7, align 8, !tbaa !22
  %24 = call i32 @Vec_IntSize(ptr noundef %23)
  %25 = load ptr, ptr %4, align 8, !tbaa !19
  %26 = call i32 @Gia_ManPiNum(ptr noundef %25)
  %27 = call i32 (ptr, ...) @printf(ptr noundef @.str.13, i32 noundef %24, i32 noundef %26)
  %28 = load ptr, ptr %7, align 8, !tbaa !22
  call void @Vec_IntFree(ptr noundef %28)
  store i32 1, ptr %9, align 4
  br label %45

29:                                               ; preds = %15
  %30 = load ptr, ptr %4, align 8, !tbaa !19
  %31 = load ptr, ptr %7, align 8, !tbaa !22
  %32 = call ptr @Gia_ManSimSimulateOne(ptr noundef %30, ptr noundef %31)
  store ptr %32, ptr %8, align 8, !tbaa !22
  %33 = load ptr, ptr %6, align 8, !tbaa !52
  %34 = load ptr, ptr %8, align 8, !tbaa !22
  %35 = load ptr, ptr %4, align 8, !tbaa !19
  %36 = call i32 @Gia_ManPoNum(ptr noundef %35)
  %37 = call i32 @Gia_ManSimWriteFile(ptr noundef %33, ptr noundef %34, i32 noundef %36)
  %38 = icmp ne i32 %37, 0
  br i1 %38, label %39, label %42

39:                                               ; preds = %29
  %40 = load ptr, ptr %6, align 8, !tbaa !52
  %41 = call i32 (ptr, ...) @printf(ptr noundef @.str.14, ptr noundef %40)
  br label %42

42:                                               ; preds = %39, %29
  %43 = load ptr, ptr %7, align 8, !tbaa !22
  call void @Vec_IntFree(ptr noundef %43)
  %44 = load ptr, ptr %8, align 8, !tbaa !22
  call void @Vec_IntFree(ptr noundef %44)
  store i32 0, ptr %9, align 4
  br label %45

45:                                               ; preds = %42, %22, %14
  call void @llvm.lifetime.end.p0(i64 8, ptr %8) #11
  call void @llvm.lifetime.end.p0(i64 8, ptr %7) #11
  %46 = load i32, ptr %9, align 4
  switch i32 %46, label %48 [
    i32 0, label %47
    i32 1, label %47
  ]

47:                                               ; preds = %45, %45
  ret void

48:                                               ; preds = %45
  unreachable
}