; Function Attrs: nounwind uwtable
define void @Gia_ManSimSimulatePattern(ptr noundef readonly captures(none) %0, ptr noundef readonly captures(none) %1, ptr noundef %2) local_unnamed_addr #1 {
  %4 = tail call ptr @Gia_ManSimReadFile(ptr noundef %1)
  %5 = icmp eq ptr %4, null
  br i1 %5, label %48, label %6

6:                                                ; preds = %3
  %7 = getelementptr i8, ptr %4, i64 4
  %.val16 = load i32, ptr %7, align 4, !tbaa !34
  %8 = getelementptr i8, ptr %0, i64 16
  %.val21 = load i32, ptr %8, align 8, !tbaa !44
  %9 = getelementptr i8, ptr %0, i64 64
  %.val22 = load ptr, ptr %9, align 8, !tbaa !48
  %10 = getelementptr i8, ptr %.val22, i64 4
  %.val22.val = load i32, ptr %10, align 4, !tbaa !34
  %11 = sub nsw i32 %.val22.val, %.val21
  %12 = srem i32 %.val16, %11
  %.not = icmp eq i32 %12, 0
  br i1 %.not, label %17, label %13

13:                                               ; preds = %6
  %14 = tail call i32 (ptr, ...) @printf(ptr noundef nonnull dereferenceable(1) @.str.13, i32 noundef %.val16, i32 noundef %11)
  %15 = getelementptr inbounds nuw i8, ptr %4, i64 8
  %16 = load ptr, ptr %15, align 8, !tbaa !36
  %.not.i = icmp eq ptr %16, null
  br i1 %.not.i, label %.sink.split, label %.sink.split.sink.split

17:                                               ; preds = %6
  %18 = tail call ptr @Gia_ManSimSimulateOne(ptr noundef nonnull %0, ptr noundef nonnull %4)
  %.val17 = load i32, ptr %8, align 8, !tbaa !44
  %19 = getelementptr i8, ptr %0, i64 72
  %.val18 = load ptr, ptr %19, align 8, !tbaa !45
  %20 = getelementptr i8, ptr %.val18, i64 4
  %.val18.val = load i32, ptr %20, align 4, !tbaa !34
  %21 = sub nsw i32 %.val18.val, %.val17
  %22 = tail call noalias ptr @fopen(ptr noundef readonly %2, ptr noundef nonnull @.str.11)
  %23 = icmp eq ptr %22, null
  br i1 %23, label %Gia_ManSimWriteFile.exit.thread, label %.preheader.i

.preheader.i:                                     ; preds = %17
  %24 = getelementptr i8, ptr %18, i64 4
  %.val17.i = load i32, ptr %24, align 4, !tbaa !34
  %25 = icmp sgt i32 %.val17.i, 0
  br i1 %25, label %.lr.ph.i, label %.loopexit

.lr.ph.i:                                         ; preds = %.preheader.i
  %26 = getelementptr i8, ptr %18, i64 8
  %27 = add nsw i32 %21, -1
  %.val16.i = load ptr, ptr %26, align 8, !tbaa !36
  %28 = zext nneg i32 %.val17.i to i64
  br label %29

Gia_ManSimWriteFile.exit.thread:                  ; preds = %17
  %puts.i = tail call i32 @puts(ptr nonnull dereferenceable(1) @str.1)
  br label %42

29:                                               ; preds = %39, %.lr.ph.i
  %indvars.iv.i = phi i64 [ 0, %.lr.ph.i ], [ %indvars.iv.next.i, %39 ]
  %30 = getelementptr inbounds nuw i32, ptr %.val16.i, i64 %indvars.iv.i
  %31 = load i32, ptr %30, align 4, !tbaa !37
  %32 = add nsw i32 %31, 48
  %33 = tail call i32 @fputc(i32 noundef %32, ptr noundef nonnull %22)
  %34 = trunc nuw nsw i64 %indvars.iv.i to i32
  %35 = srem i32 %34, %21
  %36 = icmp eq i32 %35, %27
  br i1 %36, label %37, label %39

37:                                               ; preds = %29
  %38 = tail call i32 @fputc(i32 noundef 10, ptr noundef nonnull %22)
  br label %39

39:                                               ; preds = %37, %29
  %indvars.iv.next.i = add nuw nsw i64 %indvars.iv.i, 1
  %exitcond.not = icmp eq i64 %indvars.iv.next.i, %28
  br i1 %exitcond.not, label %.loopexit, label %29, !llvm.loop !102

.loopexit:                                        ; preds = %39, %.preheader.i
  %40 = tail call i32 @fclose(ptr noundef nonnull %22)
  %41 = tail call i32 (ptr, ...) @printf(ptr noundef nonnull dereferenceable(1) @.str.14, ptr noundef %2)
  br label %42

42:                                               ; preds = %Gia_ManSimWriteFile.exit.thread, %.loopexit
  %43 = getelementptr inbounds nuw i8, ptr %4, i64 8
  %44 = load ptr, ptr %43, align 8, !tbaa !36
  %.not.i23 = icmp eq ptr %44, null
  br i1 %.not.i23, label %Vec_IntFree.exit24, label %45

45:                                               ; preds = %42
  tail call void @free(ptr noundef nonnull %44) #26
  br label %Vec_IntFree.exit24

Vec_IntFree.exit24:                               ; preds = %42, %45
  tail call void @free(ptr noundef nonnull %4) #26
  %46 = getelementptr inbounds nuw i8, ptr %18, i64 8
  %47 = load ptr, ptr %46, align 8, !tbaa !36
  %.not.i25 = icmp eq ptr %47, null
  br i1 %.not.i25, label %.sink.split, label %.sink.split.sink.split

.sink.split.sink.split:                           ; preds = %Vec_IntFree.exit24, %13
  %.sink29 = phi ptr [ %16, %13 ], [ %47, %Vec_IntFree.exit24 ]
  %.sink.ph = phi ptr [ %4, %13 ], [ %18, %Vec_IntFree.exit24 ]
  tail call void @free(ptr noundef nonnull %.sink29) #26
  br label %.sink.split

.sink.split:                                      ; preds = %.sink.split.sink.split, %Vec_IntFree.exit24, %13
  %.sink = phi ptr [ %4, %13 ], [ %18, %Vec_IntFree.exit24 ], [ %.sink.ph, %.sink.split.sink.split ]
  tail call void @free(ptr noundef nonnull %.sink) #26
  br label %48

48:                                               ; preds = %.sink.split, %3
  ret void
}